target datalayout = "e-m:e-p270:32:32-p271:32:32-p272:64:64-i64:64-i128:128-f80:128-n8:16:32:64-S128"
target triple = "x86_64-pc-linux-gnu"

%struct.AVFilterContext = type { ptr, ptr, ptr, ptr, ptr, i32, ptr, ptr, i32, ptr, ptr, i32, i32, ptr, ptr, ptr, ptr, i32, ptr, i32, i32 }
%struct.CorrContext = type { ptr, %struct.FFFrameSync, double, double, double, [4 x double], i64, i32, i32, [4 x i8], [4 x i32], [4 x i8], [4 x [2 x float]], ptr, ptr, i32, [4 x i32], [4 x i32], ptr, ptr }
%struct.FFFrameSync = type { ptr, ptr, i32, %struct.AVRational, i64, ptr, ptr, i32, i32, i8, i8, ptr, i32, i32, i32, i32 }
%struct.AVRational = type { i32, i32 }
%struct.AVChannelLayout = type { i32, i32, %union.anon.1, ptr }
%union.anon.1 = type { i64 }
%struct.ThreadData = type { ptr, ptr }
%struct.AVFrame = type { [8 x ptr], [8 x i32], ptr, i32, i32, i32, i32, i32, %struct.AVRational, i64, i64, %struct.AVRational, i32, ptr, i32, i32, [8 x ptr], ptr, i32, ptr, i32, i32, i32, i32, i32, i32, i32, i64, ptr, i32, ptr, ptr, i64, i64, i64, i64, ptr, %struct.AVChannelLayout, i64 }
%struct.QSums = type { [3 x float] }

; Function Attrs: nounwind uwtable
define internal i32 @corr_slice8(ptr noundef %0, ptr noundef %1, i32 noundef %2, i32 noundef %3) #0 {
  %5 = alloca ptr, align 8
  %6 = alloca ptr, align 8
  %7 = alloca i32, align 4
  %8 = alloca i32, align 4
  %9 = alloca ptr, align 8
  %10 = alloca ptr, align 8
  %11 = alloca ptr, align 8
  %12 = alloca ptr, align 8
  %13 = alloca i32, align 4
  %14 = alloca i32, align 4
  %15 = alloca i64, align 8
  %16 = alloca i64, align 8
  %17 = alloca ptr, align 8
  %18 = alloca ptr, align 8
  %19 = alloca i32, align 4
  %20 = alloca i32, align 4
  %21 = alloca i32, align 4
  %22 = alloca i32, align 4
  %23 = alloca float, align 4
  %24 = alloca float, align 4
  %25 = alloca float, align 4
  %26 = alloca float, align 4
  %27 = alloca float, align 4
  %28 = alloca float, align 4
  %29 = alloca i32, align 4
  %30 = alloca i32, align 4
  %31 = alloca float, align 4
  %32 = alloca float, align 4
  store ptr %0, ptr %5, align 8, !tbaa !4
  store ptr %1, ptr %6, align 8, !tbaa !73
  store i32 %2, ptr %7, align 4, !tbaa !35
  store i32 %3, ptr %8, align 4, !tbaa !35
  call void @llvm.lifetime.start.p0(i64 8, ptr %9) #11
  %33 = load ptr, ptr %5, align 8, !tbaa !4
  %34 = getelementptr inbounds nuw %struct.AVFilterContext, ptr %33, i32 0, i32 9
  %35 = load ptr, ptr %34, align 8, !tbaa !9
  store ptr %35, ptr %9, align 8, !tbaa !22
  call void @llvm.lifetime.start.p0(i64 8, ptr %10) #11
  %36 = load ptr, ptr %6, align 8, !tbaa !73
  store ptr %36, ptr %10, align 8, !tbaa !74
  call void @llvm.lifetime.start.p0(i64 8, ptr %11) #11
  %37 = load ptr, ptr %10, align 8, !tbaa !74
  %38 = getelementptr inbounds nuw %struct.ThreadData, ptr %37, i32 0, i32 0
  %39 = load ptr, ptr %38, align 8, !tbaa !76
  store ptr %39, ptr %11, align 8, !tbaa !79
  call void @llvm.lifetime.start.p0(i64 8, ptr %12) #11
  %40 = load ptr, ptr %10, align 8, !tbaa !74
  %41 = getelementptr inbounds nuw %struct.ThreadData, ptr %40, i32 0, i32 1
  %42 = load ptr, ptr %41, align 8, !tbaa !80
  store ptr %42, ptr %12, align 8, !tbaa !79
  call void @llvm.lifetime.start.p0(i64 4, ptr %13) #11
  store i32 0, ptr %13, align 4, !tbaa !35
  br label %43

43:                                               ; preds = %252, %4
  %44 = load i32, ptr %13, align 4, !tbaa !35
  %45 = load ptr, ptr %9, align 8, !tbaa !22
  %46 = getelementptr inbounds nuw %struct.CorrContext, ptr %45, i32 0, i32 15
  %47 = load i32, ptr %46, align 8, !tbaa !36
  %48 = icmp slt i32 %44, %47
  br i1 %48, label %50, label %49

49:                                               ; preds = %43
  store i32 2, ptr %14, align 4
  call void @llvm.lifetime.end.p0(i64 4, ptr %13) #11
  br label %255

50:                                               ; preds = %43
  call void @llvm.lifetime.start.p0(i64 8, ptr %15) #11
  %51 = load ptr, ptr %11, align 8, !tbaa !79
  %52 = getelementptr inbounds nuw %struct.AVFrame, ptr %51, i32 0, i32 1
  %53 = load i32, ptr %13, align 4, !tbaa !35
  %54 = sext i32 %53 to i64
  %55 = getelementptr inbounds [8 x i32], ptr %52, i64 0, i64 %54
  %56 = load i32, ptr %55, align 4, !tbaa !35
  %57 = sext i32 %56 to i64
  %58 = udiv i64 %57, 1
  store i64 %58, ptr %15, align 8, !tbaa !81
  call void @llvm.lifetime.start.p0(i64 8, ptr %16) #11
  %59 = load ptr, ptr %12, align 8, !tbaa !79
  %60 = getelementptr inbounds nuw %struct.AVFrame, ptr %59, i32 0, i32 1
  %61 = load i32, ptr %13, align 4, !tbaa !35
  %62 = sext i32 %61 to i64
  %63 = getelementptr inbounds [8 x i32], ptr %60, i64 0, i64 %62
  %64 = load i32, ptr %63, align 4, !tbaa !35
  %65 = sext i32 %64 to i64
  %66 = udiv i64 %65, 1
  store i64 %66, ptr %16, align 8, !tbaa !81
  call void @llvm.lifetime.start.p0(i64 8, ptr %17) #11
  %67 = load ptr, ptr %11, align 8, !tbaa !79
  %68 = getelementptr inbounds nuw %struct.AVFrame, ptr %67, i32 0, i32 0
  %69 = load i32, ptr %13, align 4, !tbaa !35
  %70 = sext i32 %69 to i64
  %71 = getelementptr inbounds [8 x ptr], ptr %68, i64 0, i64 %70
  %72 = load ptr, ptr %71, align 8, !tbaa !82
  store ptr %72, ptr %17, align 8, !tbaa !82
  call void @llvm.lifetime.start.p0(i64 8, ptr %18) #11
  %73 = load ptr, ptr %12, align 8, !tbaa !79
  %74 = getelementptr inbounds nuw %struct.AVFrame, ptr %73, i32 0, i32 0
  %75 = load i32, ptr %13, align 4, !tbaa !35
  %76 = sext i32 %75 to i64
  %77 = getelementptr inbounds [8 x ptr], ptr %74, i64 0, i64 %76
  %78 = load ptr, ptr %77, align 8, !tbaa !82
  store ptr %78, ptr %18, align 8, !tbaa !82
  call void @llvm.lifetime.start.p0(i64 4, ptr %19) #11
  %79 = load ptr, ptr %9, align 8, !tbaa !22
  %80 = getelementptr inbounds nuw %struct.CorrContext, ptr %79, i32 0, i32 17
  %81 = load i32, ptr %13, align 4, !tbaa !35
  %82 = sext i32 %81 to i64
  %83 = getelementptr inbounds [4 x i32], ptr %80, i64 0, i64 %82
  %84 = load i32, ptr %83, align 4, !tbaa !35
  store i32 %84, ptr %19, align 4, !tbaa !35
  call void @llvm.lifetime.start.p0(i64 4, ptr %20) #11
  %85 = load ptr, ptr %9, align 8, !tbaa !22
  %86 = getelementptr inbounds nuw %struct.CorrContext, ptr %85, i32 0, i32 16
  %87 = load i32, ptr %13, align 4, !tbaa !35
  %88 = sext i32 %87 to i64
  %89 = getelementptr inbounds [4 x i32], ptr %86, i64 0, i64 %88
  %90 = load i32, ptr %89, align 4, !tbaa !35
  store i32 %90, ptr %20, align 4, !tbaa !35
  call void @llvm.lifetime.start.p0(i64 4, ptr %21) #11
  %91 = load i32, ptr %19, align 4, !tbaa !35
  %92 = load i32, ptr %7, align 4, !tbaa !35
  %93 = mul nsw i32 %91, %92
  %94 = load i32, ptr %8, align 4, !tbaa !35
  %95 = sdiv i32 %93, %94
  store i32 %95, ptr %21, align 4, !tbaa !35
  call void @llvm.lifetime.start.p0(i64 4, ptr %22) #11
  %96 = load i32, ptr %19, align 4, !tbaa !35
  %97 = load i32, ptr %7, align 4, !tbaa !35
  %98 = add nsw i32 %97, 1
  %99 = mul nsw i32 %96, %98
  %100 = load i32, ptr %8, align 4, !tbaa !35
  %101 = sdiv i32 %99, %100
  store i32 %101, ptr %22, align 4, !tbaa !35
  call void @llvm.lifetime.start.p0(i64 4, ptr %23) #11
  %102 = load ptr, ptr %9, align 8, !tbaa !22
  %103 = getelementptr inbounds nuw %struct.CorrContext, ptr %102, i32 0, i32 10
  %104 = load i32, ptr %13, align 4, !tbaa !35
  %105 = sext i32 %104 to i64
  %106 = getelementptr inbounds [4 x i32], ptr %103, i64 0, i64 %105
  %107 = load i32, ptr %106, align 4, !tbaa !35
  %108 = sitofp i32 %107 to float
  %109 = fdiv nsz float 1.000000e+00, %108
  store float %109, ptr %23, align 4, !tbaa !93
  call void @llvm.lifetime.start.p0(i64 4, ptr %24) #11
  %110 = load ptr, ptr %9, align 8, !tbaa !22
  %111 = getelementptr inbounds nuw %struct.CorrContext, ptr %110, i32 0, i32 12
  %112 = load i32, ptr %13, align 4, !tbaa !35
  %113 = sext i32 %112 to i64
  %114 = getelementptr inbounds [4 x [2 x float]], ptr %111, i64 0, i64 %113
  %115 = getelementptr inbounds [2 x float], ptr %114, i64 0, i64 0
  %116 = load float, ptr %115, align 8, !tbaa !93
  store float %116, ptr %24, align 4, !tbaa !93
  call void @llvm.lifetime.start.p0(i64 4, ptr %25) #11
  %117 = load ptr, ptr %9, align 8, !tbaa !22
  %118 = getelementptr inbounds nuw %struct.CorrContext, ptr %117, i32 0, i32 12
  %119 = load i32, ptr %13, align 4, !tbaa !35
  %120 = sext i32 %119 to i64
  %121 = getelementptr inbounds [4 x [2 x float]], ptr %118, i64 0, i64 %120
  %122 = getelementptr inbounds [2 x float], ptr %121, i64 0, i64 1
  %123 = load float, ptr %122, align 4, !tbaa !93
  store float %123, ptr %25, align 4, !tbaa !93
  call void @llvm.lifetime.start.p0(i64 4, ptr %26) #11
  store float 0.000000e+00, ptr %26, align 4, !tbaa !93
  call void @llvm.lifetime.start.p0(i64 4, ptr %27) #11
  store float 0.000000e+00, ptr %27, align 4, !tbaa !93
  call void @llvm.lifetime.start.p0(i64 4, ptr %28) #11
  store float 0.000000e+00, ptr %28, align 4, !tbaa !93
  %124 = load ptr, ptr %11, align 8, !tbaa !79
  %125 = getelementptr inbounds nuw %struct.AVFrame, ptr %124, i32 0, i32 0
  %126 = load i32, ptr %13, align 4, !tbaa !35
  %127 = sext i32 %126 to i64
  %128 = getelementptr inbounds [8 x ptr], ptr %125, i64 0, i64 %127
  %129 = load ptr, ptr %128, align 8, !tbaa !82
  %130 = load i32, ptr %21, align 4, !tbaa !35
  %131 = sext i32 %130 to i64
  %132 = load i64, ptr %15, align 8, !tbaa !81
  %133 = mul nsw i64 %131, %132
  %134 = getelementptr inbounds i8, ptr %129, i64 %133
  store ptr %134, ptr %17, align 8, !tbaa !82
  %135 = load ptr, ptr %12, align 8, !tbaa !79
  %136 = getelementptr inbounds nuw %struct.AVFrame, ptr %135, i32 0, i32 0
  %137 = load i32, ptr %13, align 4, !tbaa !35
  %138 = sext i32 %137 to i64
  %139 = getelementptr inbounds [8 x ptr], ptr %136, i64 0, i64 %138
  %140 = load ptr, ptr %139, align 8, !tbaa !82
  %141 = load i32, ptr %21, align 4, !tbaa !35
  %142 = sext i32 %141 to i64
  %143 = load i64, ptr %16, align 8, !tbaa !81
  %144 = mul nsw i64 %142, %143
  %145 = getelementptr inbounds i8, ptr %140, i64 %144
  store ptr %145, ptr %18, align 8, !tbaa !82
  call void @llvm.lifetime.start.p0(i64 4, ptr %29) #11
  %146 = load i32, ptr %21, align 4, !tbaa !35
  store i32 %146, ptr %29, align 4, !tbaa !35
  br label %147

147:                                              ; preds = %203, %50
  %148 = load i32, ptr %29, align 4, !tbaa !35
  %149 = load i32, ptr %22, align 4, !tbaa !35
  %150 = icmp slt i32 %148, %149
  br i1 %150, label %152, label %151

151:                                              ; preds = %147
  store i32 5, ptr %14, align 4
  call void @llvm.lifetime.end.p0(i64 4, ptr %29) #11
  br label %206

152:                                              ; preds = %147
  call void @llvm.lifetime.start.p0(i64 4, ptr %30) #11
  store i32 0, ptr %30, align 4, !tbaa !35
  br label %153

153:                                              ; preds = %193, %152
  %154 = load i32, ptr %30, align 4, !tbaa !35
  %155 = load i32, ptr %20, align 4, !tbaa !35
  %156 = icmp slt i32 %154, %155
  br i1 %156, label %158, label %157

157:                                              ; preds = %153
  store i32 8, ptr %14, align 4
  call void @llvm.lifetime.end.p0(i64 4, ptr %30) #11
  br label %196

158:                                              ; preds = %153
  call void @llvm.lifetime.start.p0(i64 4, ptr %31) #11
  %159 = load float, ptr %23, align 4, !tbaa !93
  %160 = load ptr, ptr %17, align 8, !tbaa !82
  %161 = load i32, ptr %30, align 4, !tbaa !35
  %162 = sext i32 %161 to i64
  %163 = getelementptr inbounds i8, ptr %160, i64 %162
  %164 = load i8, ptr %163, align 1, !tbaa !34
  %165 = zext i8 %164 to i32
  %166 = sitofp i32 %165 to float
  %167 = load float, ptr %24, align 4, !tbaa !93
  %168 = fneg nsz float %167
  %169 = call nsz float @llvm.fmuladd.f32(float %159, float %166, float %168)
  store float %169, ptr %31, align 4, !tbaa !93
  call void @llvm.lifetime.start.p0(i64 4, ptr %32) #11
  %170 = load float, ptr %23, align 4, !tbaa !93
  %171 = load ptr, ptr %18, align 8, !tbaa !82
  %172 = load i32, ptr %30, align 4, !tbaa !35
  %173 = sext i32 %172 to i64
  %174 = getelementptr inbounds i8, ptr %171, i64 %173
  %175 = load i8, ptr %174, align 1, !tbaa !34
  %176 = zext i8 %175 to i32
  %177 = sitofp i32 %176 to float
  %178 = load float, ptr %25, align 4, !tbaa !93
  %179 = fneg nsz float %178
  %180 = call nsz float @llvm.fmuladd.f32(float %170, float %177, float %179)
  store float %180, ptr %32, align 4, !tbaa !93
  %181 = load float, ptr %31, align 4, !tbaa !93
  %182 = load float, ptr %32, align 4, !tbaa !93
  %183 = load float, ptr %26, align 4, !tbaa !93
  %184 = call nsz float @llvm.fmuladd.f32(float %181, float %182, float %183)
  store float %184, ptr %26, align 4, !tbaa !93
  %185 = load float, ptr %31, align 4, !tbaa !93
  %186 = load float, ptr %31, align 4, !tbaa !93
  %187 = load float, ptr %27, align 4, !tbaa !93
  %188 = call nsz float @llvm.fmuladd.f32(float %185, float %186, float %187)
  store float %188, ptr %27, align 4, !tbaa !93
  %189 = load float, ptr %32, align 4, !tbaa !93
  %190 = load float, ptr %32, align 4, !tbaa !93
  %191 = load float, ptr %28, align 4, !tbaa !93
  %192 = call nsz float @llvm.fmuladd.f32(float %189, float %190, float %191)
  store float %192, ptr %28, align 4, !tbaa !93
  call void @llvm.lifetime.end.p0(i64 4, ptr %32) #11
  call void @llvm.lifetime.end.p0(i64 4, ptr %31) #11
  br label %193

193:                                              ; preds = %158
  %194 = load i32, ptr %30, align 4, !tbaa !35
  %195 = add nsw i32 %194, 1
  store i32 %195, ptr %30, align 4, !tbaa !35
  br label %153, !llvm.loop !98

196:                                              ; preds = %157
  %197 = load i64, ptr %15, align 8, !tbaa !81
  %198 = load ptr, ptr %17, align 8, !tbaa !82
  %199 = getelementptr inbounds i8, ptr %198, i64 %197
  store ptr %199, ptr %17, align 8, !tbaa !82
  %200 = load i64, ptr %16, align 8, !tbaa !81
  %201 = load ptr, ptr %18, align 8, !tbaa !82
  %202 = getelementptr inbounds i8, ptr %201, i64 %200
  store ptr %202, ptr %18, align 8, !tbaa !82
  br label %203

203:                                              ; preds = %196
  %204 = load i32, ptr %29, align 4, !tbaa !35
  %205 = add nsw i32 %204, 1
  store i32 %205, ptr %29, align 4, !tbaa !35
  br label %147, !llvm.loop !99

206:                                              ; preds = %151
  %207 = load float, ptr %26, align 4, !tbaa !93
  %208 = load ptr, ptr %9, align 8, !tbaa !22
  %209 = getelementptr inbounds nuw %struct.CorrContext, ptr %208, i32 0, i32 14
  %210 = load ptr, ptr %209, align 8, !tbaa !68
  %211 = load i32, ptr %7, align 4, !tbaa !35
  %212 = load ptr, ptr %9, align 8, !tbaa !22
  %213 = getelementptr inbounds nuw %struct.CorrContext, ptr %212, i32 0, i32 15
  %214 = load i32, ptr %213, align 8, !tbaa !36
  %215 = mul nsw i32 %211, %214
  %216 = load i32, ptr %13, align 4, !tbaa !35
  %217 = add nsw i32 %215, %216
  %218 = sext i32 %217 to i64
  %219 = getelementptr inbounds %struct.QSums, ptr %210, i64 %218
  %220 = getelementptr inbounds nuw %struct.QSums, ptr %219, i32 0, i32 0
  %221 = getelementptr inbounds [3 x float], ptr %220, i64 0, i64 0
  store float %207, ptr %221, align 4, !tbaa !93
  %222 = load float, ptr %27, align 4, !tbaa !93
  %223 = load ptr, ptr %9, align 8, !tbaa !22
  %224 = getelementptr inbounds nuw %struct.CorrContext, ptr %223, i32 0, i32 14
  %225 = load ptr, ptr %224, align 8, !tbaa !68
  %226 = load i32, ptr %7, align 4, !tbaa !35
  %227 = load ptr, ptr %9, align 8, !tbaa !22
  %228 = getelementptr inbounds nuw %struct.CorrContext, ptr %227, i32 0, i32 15
  %229 = load i32, ptr %228, align 8, !tbaa !36
  %230 = mul nsw i32 %226, %229
  %231 = load i32, ptr %13, align 4, !tbaa !35
  %232 = add nsw i32 %230, %231
  %233 = sext i32 %232 to i64
  %234 = getelementptr inbounds %struct.QSums, ptr %225, i64 %233
  %235 = getelementptr inbounds nuw %struct.QSums, ptr %234, i32 0, i32 0
  %236 = getelementptr inbounds [3 x float], ptr %235, i64 0, i64 1
  store float %222, ptr %236, align 4, !tbaa !93
  %237 = load float, ptr %28, align 4, !tbaa !93
  %238 = load ptr, ptr %9, align 8, !tbaa !22
  %239 = getelementptr inbounds nuw %struct.CorrContext, ptr %238, i32 0, i32 14
  %240 = load ptr, ptr %239, align 8, !tbaa !68
  %241 = load i32, ptr %7, align 4, !tbaa !35
  %242 = load ptr, ptr %9, align 8, !tbaa !22
  %243 = getelementptr inbounds nuw %struct.CorrContext, ptr %242, i32 0, i32 15
  %244 = load i32, ptr %243, align 8, !tbaa !36
  %245 = mul nsw i32 %241, %244
  %246 = load i32, ptr %13, align 4, !tbaa !35
  %247 = add nsw i32 %245, %246
  %248 = sext i32 %247 to i64
  %249 = getelementptr inbounds %struct.QSums, ptr %240, i64 %248
  %250 = getelementptr inbounds nuw %struct.QSums, ptr %249, i32 0, i32 0
  %251 = getelementptr inbounds [3 x float], ptr %250, i64 0, i64 2
  store float %237, ptr %251, align 4, !tbaa !93
  call void @llvm.lifetime.end.p0(i64 4, ptr %28) #11
  call void @llvm.lifetime.end.p0(i64 4, ptr %27) #11
  call void @llvm.lifetime.end.p0(i64 4, ptr %26) #11
  call void @llvm.lifetime.end.p0(i64 4, ptr %25) #11
  call void @llvm.lifetime.end.p0(i64 4, ptr %24) #11
  call void @llvm.lifetime.end.p0(i64 4, ptr %23) #11
  call void @llvm.lifetime.end.p0(i64 4, ptr %22) #11
  call void @llvm.lifetime.end.p0(i64 4, ptr %21) #11
  call void @llvm.lifetime.end.p0(i64 4, ptr %20) #11
  call void @llvm.lifetime.end.p0(i64 4, ptr %19) #11
  call void @llvm.lifetime.end.p0(i64 8, ptr %18) #11
  call void @llvm.lifetime.end.p0(i64 8, ptr %17) #11
  call void @llvm.lifetime.end.p0(i64 8, ptr %16) #11
  call void @llvm.lifetime.end.p0(i64 8, ptr %15) #11
  br label %252

252:                                              ; preds = %206
  %253 = load i32, ptr %13, align 4, !tbaa !35
  %254 = add nsw i32 %253, 1
  store i32 %254, ptr %13, align 4, !tbaa !35
  br label %43, !llvm.loop !100

255:                                              ; preds = %49
  store i32 1, ptr %14, align 4
  call void @llvm.lifetime.end.p0(i64 8, ptr %12) #11
  call void @llvm.lifetime.end.p0(i64 8, ptr %11) #11
  call void @llvm.lifetime.end.p0(i64 8, ptr %10) #11
  call void @llvm.lifetime.end.p0(i64 8, ptr %9) #11
  ret i32 0
}