; Function Attrs: nofree norecurse nosync nounwind memory(readwrite, inaccessiblemem: none) uwtable
define internal noundef i32 @corr_slice8(ptr noundef readonly captures(none) %0, ptr noundef readonly captures(none) %1, i32 noundef %2, i32 noundef %3) #6 {
  %5 = getelementptr inbounds nuw i8, ptr %0, i64 72
  %6 = load ptr, ptr %5, align 8, !tbaa !4
  %7 = load ptr, ptr %1, align 8, !tbaa !68
  %8 = getelementptr inbounds nuw i8, ptr %1, i64 8
  %9 = load ptr, ptr %8, align 8, !tbaa !71
  %10 = getelementptr inbounds nuw i8, ptr %6, i64 248
  %11 = load i32, ptr %10, align 8, !tbaa !32
  %12 = icmp sgt i32 %11, 0
  br i1 %12, label %.lr.ph, label %._crit_edge

.lr.ph:                                           ; preds = %4
  %13 = getelementptr inbounds nuw i8, ptr %7, i64 64
  %14 = getelementptr inbounds nuw i8, ptr %9, i64 64
  %15 = getelementptr inbounds nuw i8, ptr %6, i64 268
  %16 = getelementptr inbounds nuw i8, ptr %6, i64 252
  %17 = add nsw i32 %2, 1
  %18 = getelementptr inbounds nuw i8, ptr %6, i64 180
  %19 = getelementptr inbounds nuw i8, ptr %6, i64 200
  %20 = getelementptr inbounds nuw i8, ptr %6, i64 240
  %21 = load ptr, ptr %20, align 8, !tbaa !63
  %22 = mul nsw i32 %11, %2
  %23 = sext i32 %22 to i64
  %wide.trip.count117 = zext nneg i32 %11 to i64
  br label %24

._crit_edge:                                      ; preds = %._crit_edge102, %4
  ret i32 0

24:                                               ; preds = %.lr.ph, %._crit_edge102
  %indvars.iv114 = phi i64 [ 0, %.lr.ph ], [ %indvars.iv.next115, %._crit_edge102 ]
  %25 = getelementptr inbounds nuw [8 x i32], ptr %13, i64 0, i64 %indvars.iv114
  %26 = load i32, ptr %25, align 4, !tbaa !60
  %27 = sext i32 %26 to i64
  %28 = getelementptr inbounds nuw [8 x i32], ptr %14, i64 0, i64 %indvars.iv114
  %29 = load i32, ptr %28, align 4, !tbaa !60
  %30 = sext i32 %29 to i64
  %31 = getelementptr inbounds nuw [4 x i32], ptr %15, i64 0, i64 %indvars.iv114
  %32 = load i32, ptr %31, align 4, !tbaa !60
  %33 = getelementptr inbounds nuw [4 x i32], ptr %16, i64 0, i64 %indvars.iv114
  %34 = load i32, ptr %33, align 4, !tbaa !60
  %35 = mul nsw i32 %32, %2
  %36 = sdiv i32 %35, %3
  %37 = mul nsw i32 %32, %17
  %38 = sdiv i32 %37, %3
  %39 = getelementptr inbounds nuw [4 x i32], ptr %18, i64 0, i64 %indvars.iv114
  %40 = load i32, ptr %39, align 4, !tbaa !60
  %41 = sitofp i32 %40 to float
  %42 = fdiv nsz float 1.000000e+00, %41
  %43 = icmp slt i32 %36, %38
  br i1 %43, label %.preheader.lr.ph, label %._crit_edge102

.preheader.lr.ph:                                 ; preds = %24
  %44 = getelementptr inbounds nuw [4 x [2 x float]], ptr %19, i64 0, i64 %indvars.iv114
  %45 = getelementptr inbounds nuw i8, ptr %44, i64 4
  %46 = load float, ptr %45, align 4, !tbaa !82
  %47 = load float, ptr %44, align 8, !tbaa !82
  %48 = icmp sgt i32 %34, 0
  %49 = fneg nsz float %47
  %50 = fneg nsz float %46
  br i1 %48, label %.preheader.us.preheader, label %._crit_edge102

.preheader.us.preheader:                          ; preds = %.preheader.lr.ph
  %51 = getelementptr inbounds nuw [8 x ptr], ptr %7, i64 0, i64 %indvars.iv114
  %52 = load ptr, ptr %51, align 8, !tbaa !72
  %53 = sext i32 %36 to i64
  %54 = mul nsw i64 %53, %27
  %55 = getelementptr inbounds i8, ptr %52, i64 %54
  %56 = getelementptr inbounds nuw [8 x ptr], ptr %9, i64 0, i64 %indvars.iv114
  %57 = load ptr, ptr %56, align 8, !tbaa !72
  %58 = mul nsw i64 %53, %30
  %59 = getelementptr inbounds i8, ptr %57, i64 %58
  %wide.trip.count = zext nneg i32 %34 to i64
  br label %.preheader.us

.preheader.us:                                    ; preds = %.preheader.us.preheader, %._crit_edge.us
  %.082101.us = phi i32 [ %74, %._crit_edge.us ], [ %36, %.preheader.us.preheader ]
  %.083100.us = phi float [ %71, %._crit_edge.us ], [ 0.000000e+00, %.preheader.us.preheader ]
  %.08499.us = phi float [ %70, %._crit_edge.us ], [ 0.000000e+00, %.preheader.us.preheader ]
  %.08698.us = phi float [ %69, %._crit_edge.us ], [ 0.000000e+00, %.preheader.us.preheader ]
  %.08897.us = phi ptr [ %72, %._crit_edge.us ], [ %55, %.preheader.us.preheader ]
  %.08996.us = phi ptr [ %73, %._crit_edge.us ], [ %59, %.preheader.us.preheader ]
  br label %60

60:                                               ; preds = %.preheader.us, %60
  %indvars.iv = phi i64 [ 0, %.preheader.us ], [ %indvars.iv.next, %60 ]
  %.192.us = phi float [ %.083100.us, %.preheader.us ], [ %71, %60 ]
  %.18591.us = phi float [ %.08499.us, %.preheader.us ], [ %70, %60 ]
  %.18790.us = phi float [ %.08698.us, %.preheader.us ], [ %69, %60 ]
  %61 = getelementptr inbounds nuw i8, ptr %.08897.us, i64 %indvars.iv
  %62 = load i8, ptr %61, align 1, !tbaa !31
  %63 = uitofp i8 %62 to float
  %64 = tail call nsz float @llvm.fmuladd.f32(float %42, float %63, float %49)
  %65 = getelementptr inbounds nuw i8, ptr %.08996.us, i64 %indvars.iv
  %66 = load i8, ptr %65, align 1, !tbaa !31
  %67 = uitofp i8 %66 to float
  %68 = tail call nsz float @llvm.fmuladd.f32(float %42, float %67, float %50)
  %69 = tail call nsz float @llvm.fmuladd.f32(float %64, float %68, float %.18790.us)
  %70 = tail call nsz float @llvm.fmuladd.f32(float %64, float %64, float %.18591.us)
  %71 = tail call nsz float @llvm.fmuladd.f32(float %68, float %68, float %.192.us)
  %indvars.iv.next = add nuw nsw i64 %indvars.iv, 1
  %exitcond.not = icmp eq i64 %indvars.iv.next, %wide.trip.count
  br i1 %exitcond.not, label %._crit_edge.us, label %60, !llvm.loop !87

._crit_edge.us:                                   ; preds = %60
  %72 = getelementptr inbounds i8, ptr %.08897.us, i64 %27
  %73 = getelementptr inbounds i8, ptr %.08996.us, i64 %30
  %74 = add nsw i32 %.082101.us, 1
  %exitcond113.not = icmp eq i32 %74, %38
  br i1 %exitcond113.not, label %._crit_edge102, label %.preheader.us, !llvm.loop !88

._crit_edge102:                                   ; preds = %._crit_edge.us, %.preheader.lr.ph, %24
  %.086.lcssa = phi float [ 0.000000e+00, %24 ], [ 0.000000e+00, %.preheader.lr.ph ], [ %69, %._crit_edge.us ]
  %.084.lcssa = phi float [ 0.000000e+00, %24 ], [ 0.000000e+00, %.preheader.lr.ph ], [ %70, %._crit_edge.us ]
  %.083.lcssa = phi float [ 0.000000e+00, %24 ], [ 0.000000e+00, %.preheader.lr.ph ], [ %71, %._crit_edge.us ]
  %75 = add nsw i64 %indvars.iv114, %23
  %76 = getelementptr inbounds %struct.QSums, ptr %21, i64 %75
  store float %.086.lcssa, ptr %76, align 4, !tbaa !82
  %77 = getelementptr inbounds %struct.QSums, ptr %21, i64 %75, i32 0, i64 1
  store float %.084.lcssa, ptr %77, align 4, !tbaa !82
  %78 = getelementptr inbounds %struct.QSums, ptr %21, i64 %75, i32 0, i64 2
  store float %.083.lcssa, ptr %78, align 4, !tbaa !82
  %indvars.iv.next115 = add nuw nsw i64 %indvars.iv114, 1
  %exitcond118.not = icmp eq i64 %indvars.iv.next115, %wide.trip.count117
  br i1 %exitcond118.not, label %._crit_edge, label %24, !llvm.loop !89
}